; Function Attrs: nounwind uwtable
define internal ptr @typealias_module(ptr noundef readonly captures(none) %0, ptr readnone captures(none) %1) #0 {
  %3 = getelementptr inbounds nuw i8, ptr %0, i64 48
  %4 = load ptr, ptr %3, align 8, !tbaa !137
  %.not = icmp eq ptr %4, null
  br i1 %.not, label %8, label %5

5:                                                ; preds = %2
  %6 = load i32, ptr %4, align 8, !tbaa !27
  %7 = icmp slt i32 %6, 0
  br i1 %7, label %_Py_NewRef.exit, label %_Py_NewRef.exit.sink.split

8:                                                ; preds = %2
  %9 = getelementptr inbounds nuw i8, ptr %0, i64 32
  %10 = load ptr, ptr %9, align 8, !tbaa !135
  %.not12 = icmp eq ptr %10, null
  br i1 %.not12, label %_Py_NewRef.exit, label %11

11:                                               ; preds = %8
  %12 = tail call ptr @PyFunction_GetModule(ptr noundef nonnull %10) #8
  %.not13 = icmp eq ptr %12, null
  br i1 %.not13, label %_Py_NewRef.exit, label %13

13:                                               ; preds = %11
  %14 = load i32, ptr %12, align 8, !tbaa !27
  %15 = icmp slt i32 %14, 0
  br i1 %15, label %_Py_NewRef.exit, label %_Py_NewRef.exit.sink.split

_Py_NewRef.exit.sink.split:                       ; preds = %13, %5
  %.sink16 = phi i32 [ %6, %5 ], [ %14, %13 ]
  %.sink15 = phi ptr [ %4, %5 ], [ %12, %13 ]
  %16 = add nuw i32 %.sink16, 1
  store i32 %16, ptr %.sink15, align 8, !tbaa !27
  br label %_Py_NewRef.exit

_Py_NewRef.exit:                                  ; preds = %_Py_NewRef.exit.sink.split, %13, %8, %11, %5
  %.0 = phi ptr [ %4, %5 ], [ @_Py_NoneStruct, %11 ], [ @_Py_NoneStruct, %8 ], [ %12, %13 ], [ %.sink15, %_Py_NewRef.exit.sink.split ]
  ret ptr %.0
}